target datalayout = "e-m:e-p270:32:32-p271:32:32-p272:64:64-i64:64-i128:128-f80:128-n8:16:32:64-S128"
target triple = "x86_64-pc-linux-gnu"

%struct.H5FD_multi_fapl_t = type { [7 x i32], [7 x i64], [7 x ptr], [7 x i64], i8 }

@.str.1 = private unnamed_addr constant [103 x i8] c"generated/home/dtcxzyw/WorkSpace/Projects/compilers/llvm-opt-benchmark/bench/hdf5/hdf5/src/H5FDmulti.c\00", align 1
@H5_libinit_g = external global i8, align 1
@H5_libterm_g = external global i8, align 1
@H5E_ERR_CLS_g = external global i64, align 8
@H5E_FILE_g = external global i64, align 8
@__func__.H5FD_multi_fapl_free = private unnamed_addr constant [21 x i8] c"H5FD_multi_fapl_free\00", align 1
@H5E_CANTCLOSEOBJ_g = external global i64, align 8
@.str.26 = private unnamed_addr constant [26 x i8] c"can't close property list\00", align 1

; Function Attrs: nounwind uwtable
define internal i32 @H5FD_multi_fapl_free(ptr noundef %0) #0 {
  %2 = alloca i32, align 4
  %3 = alloca ptr, align 8
  %4 = alloca ptr, align 8
  %5 = alloca i32, align 4
  %6 = alloca i32, align 4
  store ptr %0, ptr %3, align 8, !tbaa !40
  call void @llvm.lifetime.start.p0(i64 8, ptr %4) #9
  %7 = load ptr, ptr %3, align 8, !tbaa !40
  store ptr %7, ptr %4, align 8, !tbaa !41
  %8 = call i32 @H5Eclear2(i64 noundef 0)
  call void @llvm.lifetime.start.p0(i64 4, ptr %5) #9
  store i32 0, ptr %5, align 4, !tbaa !10
  br label %9

9:                                                ; preds = %108, %1
  %10 = load i32, ptr %5, align 4, !tbaa !10
  %11 = icmp slt i32 %10, 7
  br i1 %11, label %12, label %111

12:                                               ; preds = %9
  %13 = load ptr, ptr %4, align 8, !tbaa !41
  %14 = getelementptr inbounds nuw %struct.H5FD_multi_fapl_t, ptr %13, i32 0, i32 1
  %15 = load i32, ptr %5, align 4, !tbaa !10
  %16 = sext i32 %15 to i64
  %17 = getelementptr inbounds [7 x i64], ptr %14, i64 0, i64 %16
  %18 = load i64, ptr %17, align 8, !tbaa !12
  %19 = icmp sge i64 %18, 0
  br i1 %19, label %20, label %92

20:                                               ; preds = %12
  %21 = load ptr, ptr %4, align 8, !tbaa !41
  %22 = getelementptr inbounds nuw %struct.H5FD_multi_fapl_t, ptr %21, i32 0, i32 1
  %23 = load i32, ptr %5, align 4, !tbaa !10
  %24 = sext i32 %23 to i64
  %25 = getelementptr inbounds [7 x i64], ptr %22, i64 0, i64 %24
  %26 = load i64, ptr %25, align 8, !tbaa !12
  %27 = call i32 @H5Idec_ref(i64 noundef %26)
  %28 = icmp slt i32 %27, 0
  br i1 %28, label %29, label %91

29:                                               ; preds = %20
  br label %30

30:                                               ; preds = %29
  %31 = load i8, ptr @H5_libinit_g, align 1, !tbaa !22, !range !24, !noundef !25
  %32 = trunc i8 %31 to i1
  br i1 %32, label %37, label %33

33:                                               ; preds = %30
  %34 = load i8, ptr @H5_libterm_g, align 1, !tbaa !22, !range !24, !noundef !25
  %35 = trunc i8 %34 to i1
  %36 = xor i1 %35, true
  br label %37

37:                                               ; preds = %33, %30
  %38 = phi i1 [ false, %30 ], [ %36, %33 ]
  %39 = xor i1 %38, true
  %40 = xor i1 %39, true
  %41 = zext i1 %40 to i32
  %42 = sext i32 %41 to i64
  %43 = call i64 @llvm.expect.i64(i64 %42, i64 0)
  %44 = icmp ne i64 %43, 0
  br i1 %44, label %45, label %47

45:                                               ; preds = %37
  %46 = call i32 @H5open()
  br label %48

47:                                               ; preds = %37
  br label %48

48:                                               ; preds = %47, %45
  %49 = load i64, ptr @H5E_ERR_CLS_g, align 8, !tbaa !12
  %50 = load i8, ptr @H5_libinit_g, align 1, !tbaa !22, !range !24, !noundef !25
  %51 = trunc i8 %50 to i1
  br i1 %51, label %56, label %52

52:                                               ; preds = %48
  %53 = load i8, ptr @H5_libterm_g, align 1, !tbaa !22, !range !24, !noundef !25
  %54 = trunc i8 %53 to i1
  %55 = xor i1 %54, true
  br label %56

56:                                               ; preds = %52, %48
  %57 = phi i1 [ false, %48 ], [ %55, %52 ]
  %58 = xor i1 %57, true
  %59 = xor i1 %58, true
  %60 = zext i1 %59 to i32
  %61 = sext i32 %60 to i64
  %62 = call i64 @llvm.expect.i64(i64 %61, i64 0)
  %63 = icmp ne i64 %62, 0
  br i1 %63, label %64, label %66

64:                                               ; preds = %56
  %65 = call i32 @H5open()
  br label %67

66:                                               ; preds = %56
  br label %67

67:                                               ; preds = %66, %64
  %68 = load i64, ptr @H5E_FILE_g, align 8, !tbaa !12
  %69 = load i8, ptr @H5_libinit_g, align 1, !tbaa !22, !range !24, !noundef !25
  %70 = trunc i8 %69 to i1
  br i1 %70, label %75, label %71

71:                                               ; preds = %67
  %72 = load i8, ptr @H5_libterm_g, align 1, !tbaa !22, !range !24, !noundef !25
  %73 = trunc i8 %72 to i1
  %74 = xor i1 %73, true
  br label %75

75:                                               ; preds = %71, %67
  %76 = phi i1 [ false, %67 ], [ %74, %71 ]
  %77 = xor i1 %76, true
  %78 = xor i1 %77, true
  %79 = zext i1 %78 to i32
  %80 = sext i32 %79 to i64
  %81 = call i64 @llvm.expect.i64(i64 %80, i64 0)
  %82 = icmp ne i64 %81, 0
  br i1 %82, label %83, label %85

83:                                               ; preds = %75
  %84 = call i32 @H5open()
  br label %86

85:                                               ; preds = %75
  br label %86

86:                                               ; preds = %85, %83
  %87 = load i64, ptr @H5E_CANTCLOSEOBJ_g, align 8, !tbaa !12
  %88 = call i32 (i64, ptr, ptr, i32, i64, i64, i64, ptr, ...) @H5Epush2(i64 noundef 0, ptr noundef @.str.1, ptr noundef @__func__.H5FD_multi_fapl_free, i32 noundef 979, i64 noundef %49, i64 noundef %68, i64 noundef %87, ptr noundef @.str.26)
  store i32 -1, ptr %2, align 4
  store i32 1, ptr %6, align 4
  br label %112

89:                                               ; No predecessors!
  br label %90

90:                                               ; preds = %89
  br label %91

91:                                               ; preds = %90, %20
  br label %92

92:                                               ; preds = %91, %12
  %93 = load ptr, ptr %4, align 8, !tbaa !41
  %94 = getelementptr inbounds nuw %struct.H5FD_multi_fapl_t, ptr %93, i32 0, i32 2
  %95 = load i32, ptr %5, align 4, !tbaa !10
  %96 = sext i32 %95 to i64
  %97 = getelementptr inbounds [7 x ptr], ptr %94, i64 0, i64 %96
  %98 = load ptr, ptr %97, align 8, !tbaa !16
  %99 = icmp ne ptr %98, null
  br i1 %99, label %100, label %107

100:                                              ; preds = %92
  %101 = load ptr, ptr %4, align 8, !tbaa !41
  %102 = getelementptr inbounds nuw %struct.H5FD_multi_fapl_t, ptr %101, i32 0, i32 2
  %103 = load i32, ptr %5, align 4, !tbaa !10
  %104 = sext i32 %103 to i64
  %105 = getelementptr inbounds [7 x ptr], ptr %102, i64 0, i64 %104
  %106 = load ptr, ptr %105, align 8, !tbaa !16
  call void @free(ptr noundef %106) #9
  br label %107

107:                                              ; preds = %100, %92
  br label %108

108:                                              ; preds = %107
  %109 = load i32, ptr %5, align 4, !tbaa !10
  %110 = add nsw i32 %109, 1
  store i32 %110, ptr %5, align 4, !tbaa !10
  br label %9, !llvm.loop !45

111:                                              ; preds = %9
  store i32 0, ptr %6, align 4
  br label %112

112:                                              ; preds = %111, %86
  call void @llvm.lifetime.end.p0(i64 4, ptr %5) #9
  %113 = load i32, ptr %6, align 4
  switch i32 %113, label %116 [
    i32 0, label %114
  ]

114:                                              ; preds = %112
  %115 = load ptr, ptr %4, align 8, !tbaa !41
  call void @free(ptr noundef %115) #9
  store i32 0, ptr %2, align 4
  store i32 1, ptr %6, align 4
  br label %116

116:                                              ; preds = %114, %112
  call void @llvm.lifetime.end.p0(i64 8, ptr %4) #9
  %117 = load i32, ptr %2, align 4
  ret i32 %117
}