; Function Attrs: nounwind uwtable
define internal range(i32 -1, 1) i32 @H5FD_multi_fapl_free(ptr noundef captures(none) %0) #0 {
  %2 = tail call i32 @H5Eclear2(i64 noundef 0) #15
  %3 = getelementptr inbounds nuw i8, ptr %0, i64 32
  %4 = getelementptr inbounds nuw i8, ptr %0, i64 88
  br label %5

5:                                                ; preds = %1, %45
  %indvars.iv = phi i64 [ 0, %1 ], [ %indvars.iv.next, %45 ]
  %6 = getelementptr inbounds nuw [7 x i64], ptr %3, i64 0, i64 %indvars.iv
  %7 = load i64, ptr %6, align 8, !tbaa !23
  %8 = icmp sgt i64 %7, -1
  br i1 %8, label %9, label %41

9:                                                ; preds = %5
  %10 = tail call i32 @H5Idec_ref(i64 noundef %7) #15
  %11 = icmp slt i32 %10, 0
  br i1 %11, label %12, label %41

12:                                               ; preds = %9
  %13 = load i8, ptr @H5_libinit_g, align 1, !tbaa !18, !range !20, !noundef !21
  %14 = trunc nuw i8 %13 to i1
  %15 = load i8, ptr @H5_libterm_g, align 1, !range !20
  %16 = trunc nuw i8 %15 to i1
  %17 = select i1 %14, i1 true, i1 %16
  br i1 %17, label %20, label %18, !prof !22

18:                                               ; preds = %12
  %19 = tail call i32 @H5open() #15
  %.pre = load i8, ptr @H5_libinit_g, align 1, !tbaa !18, !range !20
  %.pre19 = load i8, ptr @H5_libterm_g, align 1, !range !20
  br label %20

20:                                               ; preds = %12, %18
  %21 = phi i8 [ %15, %12 ], [ %.pre19, %18 ]
  %22 = phi i8 [ %13, %12 ], [ %.pre, %18 ]
  %23 = load i64, ptr @H5E_ERR_CLS_g, align 8, !tbaa !23
  %24 = trunc nuw i8 %22 to i1
  %25 = trunc nuw i8 %21 to i1
  %26 = select i1 %24, i1 true, i1 %25
  br i1 %26, label %29, label %27, !prof !22

27:                                               ; preds = %20
  %28 = tail call i32 @H5open() #15
  %.pre20 = load i8, ptr @H5_libinit_g, align 1, !tbaa !18, !range !20
  %.pre21 = load i8, ptr @H5_libterm_g, align 1, !range !20
  br label %29

29:                                               ; preds = %20, %27
  %30 = phi i8 [ %21, %20 ], [ %.pre21, %27 ]
  %31 = phi i8 [ %22, %20 ], [ %.pre20, %27 ]
  %32 = load i64, ptr @H5E_FILE_g, align 8, !tbaa !23
  %33 = trunc nuw i8 %31 to i1
  %34 = trunc nuw i8 %30 to i1
  %35 = select i1 %33, i1 true, i1 %34
  br i1 %35, label %38, label %36, !prof !22

36:                                               ; preds = %29
  %37 = tail call i32 @H5open() #15
  br label %38

38:                                               ; preds = %29, %36
  %39 = load i64, ptr @H5E_CANTCLOSEOBJ_g, align 8, !tbaa !23
  %40 = tail call i32 (i64, ptr, ptr, i32, i64, i64, i64, ptr, ...) @H5Epush2(i64 noundef 0, ptr noundef nonnull @.str.1, ptr noundef nonnull @__func__.H5FD_multi_fapl_free, i32 noundef 979, i64 noundef %23, i64 noundef %32, i64 noundef %39, ptr noundef nonnull @.str.26) #15
  br label %46

41:                                               ; preds = %9, %5
  %42 = getelementptr inbounds nuw [7 x ptr], ptr %4, i64 0, i64 %indvars.iv
  %43 = load ptr, ptr %42, align 8, !tbaa !9
  %.not = icmp eq ptr %43, null
  br i1 %.not, label %45, label %44

44:                                               ; preds = %41
  tail call void @free(ptr noundef nonnull %43) #15
  br label %45

45:                                               ; preds = %41, %44
  %indvars.iv.next = add nuw nsw i64 %indvars.iv, 1
  %exitcond = icmp eq i64 %indvars.iv.next, 7
  br i1 %exitcond, label %.critedge, label %5, !llvm.loop !38

.critedge:                                        ; preds = %45
  tail call void @free(ptr noundef nonnull %0) #15
  br label %46

46:                                               ; preds = %38, %.critedge
  %.1 = phi i32 [ 0, %.critedge ], [ -1, %38 ]
  ret i32 %.1
}